ccopy_reg
_reconstructor
p0
(ctreelib.tree
Tree
p1
c__builtin__
object
p2
Ntp3
Rp4
(dp5
S'_nodes'
p6
(dp7
V1lAbCO2cZxWFy28jTVOgfciDmOVM
p8
g0
(ctreelib.node
Node
p9
g2
Ntp10
Rp11
(dp12
S'_fpointer'
p13
(lp14
sS'expanded'
p15
I01
sS'_tag'
p16
VOne day in Venice
p17
sS'_identifier'
p18
g8
sS'data'
p19
g0
(cdirectorytree
node
p20
g2
Ntp21
Rp22
(dp23
S'fileID'
p24
g8
sS'name'
p25
g17
sS'ntype'
p26
Vapplication/vnd.google-apps.map
p27
sS'parentID'
p28
S'root'
p29
sbsS'_bpointer'
p30
g29
sbsV0BzF04tKGoSKEbEZJZUtnWkdpQWM
p31
g0
(g9
g2
Ntp32
Rp33
(dp34
g13
(lp35
sg15
I01
sg16
VOld
p36
sg18
g31
sg19
g0
(g20
g2
Ntp37
Rp38
(dp39
g24
g31
sg25
g36
sg26
Vapplication/vnd.google-apps.folder
p40
sg28
g29
sbsg30
g29
sbsV0B1ze-A5UN91Hfll1OVdKUnpxWGc2OVowUkNxMTFxbzBpVXRSbVhqb2k5WGpQYWJVSm5xTm8
p41
g0
(g9
g2
Ntp42
Rp43
(dp44
g13
(lp45
sg15
I01
sg16
VNew York
p46
sg18
g41
sg19
g0
(g20
g2
Ntp47
Rp48
(dp49
g24
g41
sg25
g46
sg26
Vapplication/vnd.google-apps.folder
p50
sg28
g29
sbsg30
g29
sbsV0BzF04tKGoSKEQkxWb09FVWp3LWs
p51
g0
(g9
g2
Ntp52
Rp53
(dp54
g13
(lp55
sg15
I01
sg16
VDocuments
p56
sg18
g51
sg19
g0
(g20
g2
Ntp57
Rp58
(dp59
g24
g51
sg25
g56
sg26
Vapplication/vnd.google-apps.folder
p60
sg28
g29
sbsg30
g29
sbsV0BzF04tKGoSKETlVpSURHdWFGUnM
p61
g0
(g9
g2
Ntp62
Rp63
(dp64
g13
(lp65
sg15
I01
sg16
VPapa
p66
sg18
g61
sg19
g0
(g20
g2
Ntp67
Rp68
(dp69
g24
g61
sg25
g66
sg26
Vapplication/vnd.google-apps.folder
p70
sg28
g29
sbsg30
g29
sbsV0BzF04tKGoSKEdWhsQ2s3RE5rUVU
p71
g0
(g9
g2
Ntp72
Rp73
(dp74
g13
(lp75
sg15
I01
sg16
VTermDrive
p76
sg18
g71
sg19
g0
(g20
g2
Ntp77
Rp78
(dp79
g24
g71
sg25
g76
sg26
Vapplication/vnd.google-apps.folder
p80
sg28
g29
sbsg30
g29
sbsV1jI57NxCtqxr1sKniaCuLcl_8t_dtv9ApsOgu39bZT_g
p81
g0
(g9
g2
Ntp82
Rp83
(dp84
g13
(lp85
sg15
I01
sg16
VGoogle Photos
p86
sg18
g81
sg19
g0
(g20
g2
Ntp87
Rp88
(dp89
g24
g81
sg25
g86
sg26
Vapplication/vnd.google-apps.folder
p90
sg28
g29
sbsg30
g29
sbsV0BzF04tKGoSKENVJZU3g3YlFyVms
p91
g0
(g9
g2
Ntp92
Rp93
(dp94
g13
(lp95
sg15
I01
sg16
VWorkspace
p96
sg18
g91
sg19
g0
(g20
g2
Ntp97
Rp98
(dp99
g24
g91
sg25
g96
sg26
Vapplication/vnd.google-apps.folder
p100
sg28
g29
sbsg30
g29
sbsV0BzF04tKGoSKEenVLanVIQkFYWW8
p101
g0
(g9
g2
Ntp102
Rp103
(dp104
g13
(lp105
sg15
I01
sg16
VScans
p106
sg18
g101
sg19
g0
(g20
g2
Ntp107
Rp108
(dp109
g24
g101
sg25
g106
sg26
Vapplication/vnd.google-apps.folder
p110
sg28
g29
sbsg30
g29
sbsV0BzF04tKGoSKELXI1REhOOXhCVUU
p111
g0
(g9
g2
Ntp112
Rp113
(dp114
g13
(lp115
sg15
I01
sg16
VSoftware
p116
sg18
g111
sg19
g0
(g20
g2
Ntp117
Rp118
(dp119
g24
g111
sg25
g116
sg26
Vapplication/vnd.google-apps.folder
p120
sg28
g29
sbsg30
g29
sbsV0BzF04tKGoSKEa3VsTkttbk0tZzQ
p121
g0
(g9
g2
Ntp122
Rp123
(dp124
g13
(lp125
sg15
I01
sg16
VPhD Research
p126
sg18
g121
sg19
g0
(g20
g2
Ntp127
Rp128
(dp129
g24
g121
sg25
g126
sg26
Vapplication/vnd.google-apps.folder
p130
sg28
g29
sbsg30
g29
sbsV0B-lT58caWaxOaWdnYlpvay1vbGc
p131
g0
(g9
g2
Ntp132
Rp133
(dp134
g13
(lp135
sg15
I01
sg16
VCIS 540 - Project
p136
sg18
g131
sg19
g0
(g20
g2
Ntp137
Rp138
(dp139
g24
g131
sg25
g136
sg26
Vapplication/vnd.google-apps.folder
p140
sg28
g29
sbsg30
g29
sbsV0BzF04tKGoSKEaXo2bnk1TjhPd0k
p141
g0
(g9
g2
Ntp142
Rp143
(dp144
g13
(lp145
sg15
I01
sg16
VWedding Pictures
p146
sg18
g141
sg19
g0
(g20
g2
Ntp147
Rp148
(dp149
g24
g141
sg25
g146
sg26
Vapplication/vnd.google-apps.folder
p150
sg28
g29
sbsg30
g29
sbsg29
g0
(g9
g2
Ntp151
Rp152
(dp153
g13
(lp154
g71
ag121
ag8
ag101
aV0B1ze-A5UN91HfmxjdnpjY29GZFpQT21VdDF4Q0k2Uld0N0hjRzcxNHN2elh4d2dGZkE0LUU
p155
ag81
ag41
ag131
aV0BzF04tKGoSKEZ2x1bW8tZjNKbWs
p156
ag141
ag51
ag61
ag111
ag91
ag31
asg15
I01
sg16
S'Root'
p157
sg18
g29
sg19
Nsg30
Nsbsg156
g0
(g9
g2
Ntp158
Rp159
(dp160
g13
(lp161
sg15
I01
sg16
Vuniversityofcincinnatioffer
p162
sg18
g156
sg19
g0
(g20
g2
Ntp163
Rp164
(dp165
g24
g156
sg25
g162
sg26
Vapplication/vnd.google-apps.folder
p166
sg28
g29
sbsg30
g29
sbsg155
g0
(g9
g2
Ntp167
Rp168
(dp169
g13
(lp170
sg15
I01
sg16
VRohit's Graduation U Penn 2015
p171
sg18
g155
sg19
g0
(g20
g2
Ntp172
Rp173
(dp174
g24
g155
sg25
g171
sg26
Vapplication/vnd.google-apps.folder
p175
sg28
g29
sbsg30
g29
sbssg29
g29
sb.